target datalayout = "e-m:e-p270:32:32-p271:32:32-p272:64:64-i64:64-i128:128-f80:128-n8:16:32:64-S128"
target triple = "x86_64-pc-linux-gnu"

%struct.Vmem = type { ptr, i64, i64 }
%struct.Expr_ = type { ptr, %union.SourceSpan, i16, %union.anon.29 }
%union.SourceSpan = type { i64 }
%union.anon.29 = type { %struct.ExprAnySwitch }
%struct.ExprAnySwitch = type { i8, %union.anon.31 }
%union.anon.31 = type { %struct.anon.32 }
%struct.anon.32 = type { ptr, %union.SourceSpan, ptr }
%struct.Type_ = type { i32, ptr, ptr, ptr, %union.anon.85, ptr, ptr, %union.anon.87 }
%union.anon.85 = type { ptr }
%union.anon.87 = type { %struct.TypeFunction }
%struct.TypeFunction = type { ptr, ptr, ptr }
%struct.Decl_ = type { ptr, ptr, %union.SourceSpan, i64, %union.anon, i32, %union.anon.0, i64, ptr, ptr, ptr, %union.anon.1 }
%union.anon = type { ptr }
%union.anon.0 = type { i16 }
%union.anon.1 = type { %struct.FuncDecl }
%struct.FuncDecl = type { i32, [4 x i8], %struct.Signature_, i32, i32, %union.anon.8 }
%struct.Signature_ = type <{ %struct.CalleeAttributes, i16, i8, i32, i32, [4 x i8], ptr }>
%struct.CalleeAttributes = type { i8 }
%union.anon.8 = type { %struct.anon.9 }
%struct.anon.9 = type { i16, %union.anon.10 }
%union.anon.10 = type { ptr }
%struct.anon.2 = type { ptr, ptr, %union.anon.3 }
%union.anon.3 = type { %struct.BitStructDecl }
%struct.BitStructDecl = type { ptr, ptr, i8 }
%struct.TypeInfo_ = type { i16, ptr, %union.SourceSpan, %union.anon.56 }
%union.anon.56 = type { %struct.anon.57 }
%struct.anon.57 = type { ptr, ptr }
%struct.ExprConst = type { i16, %union.anon.38 }
%union.anon.38 = type { %struct.Int }
%struct.Int = type { %struct.Int128_, i32 }
%struct.Int128_ = type { i64, i64 }
%struct.ExprCast = type { i8, i32, i32 }

@.str.2 = private unnamed_addr constant [36 x i8] c"FATAL ERROR %s -> in %s @ in %s:%d \00", align 1
@.str.3 = private unnamed_addr constant [22 x i8] c"Should be unreachable\00", align 1
@__func__.type_flatten = private unnamed_addr constant [13 x i8] c"type_flatten\00", align 1
@.str.10 = private unnamed_addr constant [118 x i8] c"generated/home/dtcxzyw/WorkSpace/Projects/compilers/llvm-opt-benchmark/bench/c3c/c3c/src/compiler/compiler_internal.h\00", align 1
@expr_arena = external global %struct.Vmem, align 8

; Function Attrs: nounwind uwtable
define internal ptr @expr_calloc() #0 {
  %1 = call ptr @vmem_alloc(ptr noundef @expr_arena, i64 noundef 56)
  ret ptr %1
}

; Function Attrs: nounwind uwtable
define internal i32 @exprid(ptr noundef %0) #0 {
  %2 = alloca ptr, align 8
  store ptr %0, ptr %2, align 8
  %3 = load ptr, ptr %2, align 8
  %4 = load ptr, ptr @expr_arena, align 8
  %5 = ptrtoint ptr %3 to i64
  %6 = ptrtoint ptr %4 to i64
  %7 = sub i64 %5, %6
  %8 = sdiv exact i64 %7, 56
  %9 = trunc i64 %8 to i32
  ret i32 %9
}

; Function Attrs: nounwind uwtable
define internal ptr @expr_copy(ptr noundef %0) #0 {
  %2 = alloca ptr, align 8
  %3 = alloca ptr, align 8
  store ptr %0, ptr %2, align 8
  %4 = call ptr @expr_calloc()
  store ptr %4, ptr %3, align 8
  %5 = load ptr, ptr %3, align 8
  %6 = load ptr, ptr %2, align 8
  call void @llvm.memcpy.p0.p0.i64(ptr align 8 %5, ptr align 8 %6, i64 56, i1 false)
  %7 = load ptr, ptr %3, align 8
  ret ptr %7
}

; Function Attrs: nounwind uwtable
define internal ptr @type_flatten(ptr noundef %0) #0 {
  %2 = alloca ptr, align 8
  store ptr %0, ptr %2, align 8
  br label %3

3:                                                ; preds = %28, %1
  %4 = load ptr, ptr %2, align 8
  %5 = getelementptr inbounds %struct.Type_, ptr %4, i32 0, i32 1
  %6 = load ptr, ptr %5, align 8
  store ptr %6, ptr %2, align 8
  %7 = load ptr, ptr %2, align 8
  %8 = getelementptr inbounds %struct.Type_, ptr %7, i32 0, i32 0
  %9 = load i32, ptr %8, align 8
  switch i32 %9, label %26 [
    i32 32, label %10
    i32 40, label %19
    i32 31, label %23
  ]

10:                                               ; preds = %3
  %11 = load ptr, ptr %2, align 8
  %12 = getelementptr inbounds %struct.Type_, ptr %11, i32 0, i32 7
  %13 = load ptr, ptr %12, align 8
  %14 = getelementptr inbounds %struct.Decl_, ptr %13, i32 0, i32 11
  %15 = getelementptr inbounds %struct.anon.2, ptr %14, i32 0, i32 2
  %16 = load ptr, ptr %15, align 8
  %17 = getelementptr inbounds %struct.TypeInfo_, ptr %16, i32 0, i32 1
  %18 = load ptr, ptr %17, align 8
  store ptr %18, ptr %2, align 8
  br label %28

19:                                               ; preds = %3
  %20 = load ptr, ptr %2, align 8
  %21 = getelementptr inbounds %struct.Type_, ptr %20, i32 0, i32 7
  %22 = load ptr, ptr %21, align 8
  store ptr %22, ptr %2, align 8
  br label %28

23:                                               ; preds = %3
  br label %24

24:                                               ; preds = %23
  call void (ptr, ...) @error_exit(ptr noundef @.str.2, ptr noundef @.str.3, ptr noundef @__func__.type_flatten, ptr noundef @.str.10, i32 noundef 2984) #6
  unreachable

25:                                               ; No predecessors!
  br label %26

26:                                               ; preds = %25, %3
  %27 = load ptr, ptr %2, align 8
  ret ptr %27

28:                                               ; preds = %19, %10
  br label %3
}

; Function Attrs: nounwind uwtable
define internal zeroext i1 @insert_runtime_cast(ptr noundef %0, i32 noundef %1, ptr noundef %2) #0 {
  %4 = alloca ptr, align 8
  %5 = alloca i32, align 4
  %6 = alloca ptr, align 8
  %7 = alloca ptr, align 8
  store ptr %0, ptr %4, align 8
  store i32 %1, ptr %5, align 4
  store ptr %2, ptr %6, align 8
  %8 = load ptr, ptr %4, align 8
  %9 = call ptr @expr_copy(ptr noundef %8)
  store ptr %9, ptr %7, align 8
  %10 = load ptr, ptr %4, align 8
  %11 = getelementptr inbounds %struct.Expr_, ptr %10, i32 0, i32 2
  %12 = load i16, ptr %11, align 8
  %13 = and i16 %12, -256
  %14 = or i16 %13, 9
  store i16 %14, ptr %11, align 8
  %15 = load i32, ptr %5, align 4
  %16 = load ptr, ptr %4, align 8
  %17 = getelementptr inbounds %struct.Expr_, ptr %16, i32 0, i32 3
  %18 = trunc i32 %15 to i8
  store i8 %18, ptr %17, align 8
  %19 = load ptr, ptr %7, align 8
  %20 = call i32 @exprid(ptr noundef %19)
  %21 = load ptr, ptr %4, align 8
  %22 = getelementptr inbounds %struct.Expr_, ptr %21, i32 0, i32 3
  %23 = getelementptr inbounds %struct.ExprCast, ptr %22, i32 0, i32 1
  store i32 %20, ptr %23, align 4
  %24 = load ptr, ptr %4, align 8
  %25 = getelementptr inbounds %struct.Expr_, ptr %24, i32 0, i32 3
  %26 = getelementptr inbounds %struct.ExprCast, ptr %25, i32 0, i32 2
  store i32 0, ptr %26, align 8
  %27 = load ptr, ptr %6, align 8
  %28 = load ptr, ptr %4, align 8
  %29 = getelementptr inbounds %struct.Expr_, ptr %28, i32 0, i32 0
  store ptr %27, ptr %29, align 8
  ret i1 true
}

; Function Attrs: nounwind uwtable
define internal void @cast_bool_to_int(ptr noundef %0, ptr noundef %1, ptr noundef %2) #0 {
  %4 = alloca i32, align 4
  %5 = alloca ptr, align 8
  %6 = alloca ptr, align 8
  %7 = alloca i64, align 8
  %8 = alloca i32, align 4
  %9 = alloca ptr, align 8
  %10 = alloca i1, align 1
  %11 = alloca ptr, align 8
  %12 = alloca i32, align 4
  %13 = alloca ptr, align 8
  %14 = alloca ptr, align 8
  %15 = alloca ptr, align 8
  %16 = alloca ptr, align 8
  store ptr %0, ptr %14, align 8
  store ptr %1, ptr %15, align 8
  store ptr %2, ptr %16, align 8
  %17 = load ptr, ptr %15, align 8
  %18 = load ptr, ptr %16, align 8
  store ptr %17, ptr %11, align 8
  store i32 6, ptr %12, align 4
  store ptr %18, ptr %13, align 8
  %19 = load ptr, ptr %11, align 8
  store ptr %19, ptr %9, align 8
  %20 = load ptr, ptr %9, align 8
  %21 = getelementptr inbounds %struct.Expr_, ptr %20, i32 0, i32 2
  %22 = load i16, ptr %21, align 8
  %23 = and i16 %22, 255
  %24 = zext i16 %23 to i32
  %25 = icmp eq i32 %24, 14
  br i1 %25, label %26, label %34

26:                                               ; preds = %3
  %27 = load ptr, ptr %11, align 8
  %28 = getelementptr inbounds %struct.Expr_, ptr %27, i32 0, i32 3
  %29 = load i16, ptr %28, align 8
  %30 = and i16 %29, 255
  %31 = zext i16 %30 to i32
  %32 = icmp ne i32 %31, 8
  br i1 %32, label %33, label %34

33:                                               ; preds = %26
  store i1 false, ptr %10, align 1
  br label %39

34:                                               ; preds = %26, %3
  %35 = load ptr, ptr %11, align 8
  %36 = load i32, ptr %12, align 4
  %37 = load ptr, ptr %13, align 8
  %38 = call zeroext i1 @insert_runtime_cast(ptr noundef %35, i32 noundef %36, ptr noundef %37)
  store i1 %38, ptr %10, align 1
  br label %39

39:                                               ; preds = %34, %33
  %40 = load i1, ptr %10, align 1
  br i1 %40, label %41, label %42

41:                                               ; preds = %39
  br label %114

42:                                               ; preds = %39
  %43 = load ptr, ptr %15, align 8
  %44 = load ptr, ptr %16, align 8
  %45 = load ptr, ptr %15, align 8
  %46 = getelementptr inbounds %struct.Expr_, ptr %45, i32 0, i32 3
  %47 = getelementptr inbounds %struct.ExprConst, ptr %46, i32 0, i32 1
  %48 = load i8, ptr %47, align 8
  %49 = trunc i8 %48 to i1
  %50 = select i1 %49, i32 1, i32 0
  %51 = sext i32 %50 to i64
  store ptr %43, ptr %5, align 8
  store ptr %44, ptr %6, align 8
  store i64 %51, ptr %7, align 8
  %52 = load ptr, ptr %5, align 8
  %53 = getelementptr inbounds %struct.Expr_, ptr %52, i32 0, i32 2
  %54 = load i16, ptr %53, align 8
  %55 = and i16 %54, -256
  %56 = or i16 %55, 14
  store i16 %56, ptr %53, align 8
  %57 = load ptr, ptr %6, align 8
  %58 = load ptr, ptr %5, align 8
  store ptr %57, ptr %58, align 8
  %59 = load ptr, ptr %6, align 8
  %60 = call ptr @type_flatten(ptr noundef %59)
  %61 = load i32, ptr %60, align 8
  store i32 %61, ptr %8, align 4
  %62 = load ptr, ptr %5, align 8
  %63 = getelementptr inbounds %struct.Expr_, ptr %62, i32 0, i32 3
  %64 = getelementptr inbounds %struct.ExprConst, ptr %63, i32 0, i32 1
  store i64 0, ptr %64, align 8
  %65 = load i32, ptr %8, align 4
  store i32 %65, ptr %4, align 4
  %66 = load i32, ptr %4, align 4
  %67 = icmp uge i32 %66, 3
  br i1 %67, label %68, label %71

68:                                               ; preds = %42
  %69 = load i32, ptr %4, align 4
  %70 = icmp ult i32 %69, 8
  br label %71

71:                                               ; preds = %68, %42
  %72 = phi i1 [ false, %42 ], [ %70, %68 ]
  br i1 %72, label %73, label %81

73:                                               ; preds = %71
  %74 = load i64, ptr %7, align 8
  %75 = icmp ugt i64 %74, 9223372036854775807
  br i1 %75, label %76, label %80

76:                                               ; preds = %73
  %77 = load ptr, ptr %5, align 8
  %78 = getelementptr inbounds %struct.Expr_, ptr %77, i32 0, i32 3
  %79 = getelementptr inbounds %struct.ExprConst, ptr %78, i32 0, i32 1
  store i64 -1, ptr %79, align 8
  br label %80

80:                                               ; preds = %76, %73
  br label %94

81:                                               ; preds = %71
  %82 = load i32, ptr %8, align 4
  switch i32 %82, label %92 [
    i32 8, label %83
    i32 9, label %86
    i32 10, label %89
  ]

83:                                               ; preds = %81
  %84 = load i64, ptr %7, align 8
  %85 = and i64 %84, 255
  store i64 %85, ptr %7, align 8
  br label %93

86:                                               ; preds = %81
  %87 = load i64, ptr %7, align 8
  %88 = and i64 %87, 65535
  store i64 %88, ptr %7, align 8
  br label %93

89:                                               ; preds = %81
  %90 = load i64, ptr %7, align 8
  %91 = and i64 %90, 4294967295
  store i64 %91, ptr %7, align 8
  br label %93

92:                                               ; preds = %81
  br label %93

93:                                               ; preds = %92, %89, %86, %83
  br label %94

94:                                               ; preds = %93, %80
  %95 = load i64, ptr %7, align 8
  %96 = load ptr, ptr %5, align 8
  %97 = getelementptr inbounds %struct.Expr_, ptr %96, i32 0, i32 3
  %98 = getelementptr inbounds %struct.ExprConst, ptr %97, i32 0, i32 1
  %99 = getelementptr inbounds %struct.Int128_, ptr %98, i32 0, i32 1
  store i64 %95, ptr %99, align 8
  %100 = load i32, ptr %8, align 4
  %101 = load ptr, ptr %5, align 8
  %102 = getelementptr inbounds %struct.Expr_, ptr %101, i32 0, i32 3
  %103 = getelementptr inbounds %struct.ExprConst, ptr %102, i32 0, i32 1
  %104 = getelementptr inbounds %struct.Int, ptr %103, i32 0, i32 1
  store i32 %100, ptr %104, align 8
  %105 = load ptr, ptr %5, align 8
  %106 = getelementptr inbounds %struct.Expr_, ptr %105, i32 0, i32 3
  %107 = load i16, ptr %106, align 8
  %108 = and i16 %107, -257
  store i16 %108, ptr %106, align 8
  %109 = load ptr, ptr %5, align 8
  %110 = getelementptr inbounds %struct.Expr_, ptr %109, i32 0, i32 3
  %111 = load i16, ptr %110, align 8
  %112 = and i16 %111, -256
  %113 = or i16 %112, 1
  store i16 %113, ptr %110, align 8
  br label %114

114:                                              ; preds = %94, %41
  ret void
}