; Function Attrs: nounwind uwtable
define internal void @cast_bool_to_int(ptr nocapture readnone %0, ptr nocapture noundef %1, ptr noundef %2) #0 {
  %4 = getelementptr inbounds i8, ptr %1, i64 16
  %5 = load i16, ptr %4, align 8
  %6 = and i16 %5, 255
  %7 = icmp eq i16 %6, 14
  br i1 %7, label %8, label %.critedge

8:                                                ; preds = %3
  %9 = getelementptr inbounds i8, ptr %1, i64 24
  %10 = load i16, ptr %9, align 8
  %11 = and i16 %10, 255
  %.not = icmp eq i16 %11, 8
  br i1 %.not, label %.critedge, label %25

.critedge:                                        ; preds = %8, %3
  %12 = tail call noundef ptr @vmem_alloc(ptr noundef nonnull @expr_arena, i64 noundef 56) #10
  tail call void @llvm.memcpy.p0.p0.i64(ptr noundef nonnull align 8 dereferenceable(56) %12, ptr noundef nonnull align 8 dereferenceable(56) %1, i64 56, i1 false)
  %13 = load i16, ptr %4, align 8
  %14 = and i16 %13, -256
  %15 = or disjoint i16 %14, 9
  store i16 %15, ptr %4, align 8
  %16 = getelementptr inbounds i8, ptr %1, i64 24
  store i8 6, ptr %16, align 8
  %17 = load ptr, ptr @expr_arena, align 8
  %18 = ptrtoint ptr %12 to i64
  %19 = ptrtoint ptr %17 to i64
  %20 = sub i64 %18, %19
  %21 = sdiv exact i64 %20, 56
  %22 = trunc i64 %21 to i32
  %23 = getelementptr inbounds i8, ptr %1, i64 28
  store i32 %22, ptr %23, align 4
  %24 = getelementptr inbounds i8, ptr %1, i64 32
  store i32 0, ptr %24, align 8
  store ptr %2, ptr %1, align 8
  br label %48

25:                                               ; preds = %8
  %26 = getelementptr inbounds i8, ptr %1, i64 32
  %27 = load i8, ptr %26, align 8
  %28 = and i8 %27, 1
  %29 = zext nneg i8 %28 to i64
  store ptr %2, ptr %1, align 8
  br label %30

30:                                               ; preds = %43, %25
  %.0.i = phi ptr [ %2, %25 ], [ %.1.i, %43 ]
  %31 = getelementptr inbounds i8, ptr %.0.i, i64 8
  %32 = load ptr, ptr %31, align 8
  %33 = load i32, ptr %32, align 8
  switch i32 %33, label %type_flatten.exit [
    i32 32, label %34
    i32 40, label %40
    i32 31, label %42
  ]

34:                                               ; preds = %30
  %35 = getelementptr inbounds i8, ptr %32, i64 56
  %36 = load ptr, ptr %35, align 8
  %37 = getelementptr inbounds i8, ptr %36, i64 96
  %38 = load ptr, ptr %37, align 8
  %39 = getelementptr inbounds i8, ptr %38, i64 8
  br label %43

40:                                               ; preds = %30
  %41 = getelementptr inbounds i8, ptr %32, i64 56
  br label %43

42:                                               ; preds = %30
  tail call void (ptr, ...) @error_exit(ptr noundef nonnull @.str.2, ptr noundef nonnull @.str.3, ptr noundef nonnull @__func__.type_flatten, ptr noundef nonnull @.str.10, i32 noundef 2984) #11
  unreachable

43:                                               ; preds = %40, %34
  %.1.in.i = phi ptr [ %41, %40 ], [ %39, %34 ]
  %.1.i = load ptr, ptr %.1.in.i, align 8
  br label %30

type_flatten.exit:                                ; preds = %30
  store i64 0, ptr %26, align 8
  %44 = getelementptr inbounds i8, ptr %1, i64 40
  store i64 %29, ptr %44, align 8
  %45 = getelementptr inbounds i8, ptr %1, i64 48
  store i32 %33, ptr %45, align 8
  %46 = and i16 %10, -512
  %47 = or disjoint i16 %46, 1
  store i16 %47, ptr %9, align 8
  br label %48

48:                                               ; preds = %.critedge, %type_flatten.exit
  ret void
}